target datalayout = "e-m:e-p270:32:32-p271:32:32-p272:64:64-i64:64-i128:128-f80:128-n8:16:32:64-S128"
target triple = "x86_64-pc-linux-gnu"

%struct.EState = type { i32, i32, ptr, ptr, ptr, i32, ptr, ptr, ptr, ptr, ptr, ptr, ptr, ptr, ptr, ptr, i32, ptr, ptr, ptr, ptr, ptr, ptr, ptr, ptr, ptr, ptr, i64, i64, i32, i32, i8, ptr, ptr, ptr, ptr, ptr, i8, i32, i32, ptr, i32, ptr, ptr, ptr, ptr }
%struct.List = type { i32, i32, i32, ptr, [0 x %union.ListCell] }
%union.ListCell = type { ptr }
%struct.nameData = type { [64 x i8] }
%struct.RelationData = type { %struct.RelFileLocator, ptr, i32, i32, i8, i8, i8, i8, i8, i32, i32, i32, i32, ptr, ptr, i32, %struct.LockInfoData, ptr, ptr, ptr, ptr, ptr, i8, ptr, ptr, ptr, ptr, ptr, ptr, i32, ptr, i8, ptr, ptr, i32, i8, i32, ptr, i8, ptr, ptr, ptr, ptr, ptr, ptr, ptr, i32, ptr, ptr, ptr, ptr, ptr, ptr, ptr, ptr, ptr, ptr, ptr, ptr, ptr, ptr, ptr, ptr, ptr, ptr, ptr, i32, i8, ptr }
%struct.RelFileLocator = type { i32, i32, i32 }
%struct.LockInfoData = type { %struct.LockRelId }
%struct.LockRelId = type { i32, i32 }
%struct.FormData_pg_class = type { i32, %struct.nameData, i32, i32, i32, i32, i32, i32, i32, i32, float, i32, i32, i8, i8, i8, i8, i16, i16, i8, i8, i8, i8, i8, i8, i8, i8, i32, i32, i32 }
%struct.ResultRelInfo = type { i32, i32, ptr, i32, ptr, ptr, i16, ptr, i8, ptr, ptr, ptr, i8, i8, ptr, ptr, ptr, ptr, ptr, ptr, ptr, ptr, ptr, ptr, i8, i32, i32, i32, ptr, ptr, ptr, ptr, ptr, ptr, ptr, i32, i32, ptr, ptr, ptr, ptr, [3 x ptr], ptr, ptr, ptr, i8, ptr, i8, ptr, ptr, ptr, ptr }
%struct.TupleConversionMap = type { ptr, ptr, ptr, ptr, ptr, ptr, ptr }
%struct.RTEPermissionInfo = type { i32, i32, i8, i64, i32, ptr, ptr, ptr }

@CurrentMemoryContext = external global ptr, align 8

; Function Attrs: inlinehint nounwind uwtable
define internal ptr @list_nth_cell(ptr noundef %0, i32 noundef %1) #3 {
  %3 = alloca ptr, align 8
  %4 = alloca i32, align 4
  store ptr %0, ptr %3, align 8
  store i32 %1, ptr %4, align 4
  %5 = load ptr, ptr %3, align 8
  %6 = getelementptr inbounds nuw %struct.List, ptr %5, i32 0, i32 3
  %7 = load ptr, ptr %6, align 8
  %8 = load i32, ptr %4, align 4
  %9 = sext i32 %8 to i64
  %10 = getelementptr inbounds %union.ListCell, ptr %7, i64 %9
  ret ptr %10
}

; Function Attrs: inlinehint nounwind uwtable
define internal ptr @list_nth(ptr noundef %0, i32 noundef %1) #3 {
  %3 = alloca ptr, align 8
  %4 = alloca i32, align 4
  store ptr %0, ptr %3, align 8
  store i32 %1, ptr %4, align 4
  %5 = load ptr, ptr %3, align 8
  %6 = load i32, ptr %4, align 4
  %7 = call ptr @list_nth_cell(ptr noundef %5, i32 noundef %6)
  %8 = load ptr, ptr %7, align 8
  ret ptr %8
}

; Function Attrs: inlinehint nounwind uwtable
define internal ptr @MemoryContextSwitchTo(ptr noundef %0) #3 {
  %2 = alloca ptr, align 8
  %3 = alloca ptr, align 8
  store ptr %0, ptr %2, align 8
  call void @llvm.lifetime.start.p0(i64 8, ptr %3) #6
  %4 = load ptr, ptr @CurrentMemoryContext, align 8
  store ptr %4, ptr %3, align 8
  %5 = load ptr, ptr %2, align 8
  store ptr %5, ptr @CurrentMemoryContext, align 8
  %6 = load ptr, ptr %3, align 8
  call void @llvm.lifetime.end.p0(i64 8, ptr %3) #6
  ret ptr %6
}

; Function Attrs: inlinehint nounwind uwtable
define internal ptr @exec_rt_fetch(i32 noundef %0, ptr noundef %1) #3 {
  %3 = alloca i32, align 4
  %4 = alloca ptr, align 8
  store i32 %0, ptr %3, align 4
  store ptr %1, ptr %4, align 8
  %5 = load ptr, ptr %4, align 8
  %6 = getelementptr inbounds nuw %struct.EState, ptr %5, i32 0, i32 4
  %7 = load ptr, ptr %6, align 8
  %8 = load i32, ptr %3, align 4
  %9 = sub i32 %8, 1
  %10 = call ptr @list_nth(ptr noundef %7, i32 noundef %9)
  ret ptr %10
}

; Function Attrs: nounwind uwtable
define dso_local ptr @ExecGetRootToChildMap(ptr noundef %0, ptr noundef %1) #0 {
  %3 = alloca ptr, align 8
  %4 = alloca ptr, align 8
  %5 = alloca ptr, align 8
  %6 = alloca ptr, align 8
  %7 = alloca ptr, align 8
  %8 = alloca ptr, align 8
  %9 = alloca ptr, align 8
  %10 = alloca ptr, align 8
  store ptr %0, ptr %3, align 8
  store ptr %1, ptr %4, align 8
  %11 = load ptr, ptr %3, align 8
  %12 = getelementptr inbounds nuw %struct.ResultRelInfo, ptr %11, i32 0, i32 47
  %13 = load i8, ptr %12, align 8, !range !6, !noundef !7
  %14 = trunc i8 %13 to i1
  br i1 %14, label %60, label %15

15:                                               ; preds = %2
  call void @llvm.lifetime.start.p0(i64 8, ptr %5) #6
  %16 = load ptr, ptr %3, align 8
  %17 = getelementptr inbounds nuw %struct.ResultRelInfo, ptr %16, i32 0, i32 48
  %18 = load ptr, ptr %17, align 8
  store ptr %18, ptr %5, align 8
  call void @llvm.lifetime.start.p0(i64 8, ptr %6) #6
  %19 = load ptr, ptr %5, align 8
  %20 = getelementptr inbounds nuw %struct.ResultRelInfo, ptr %19, i32 0, i32 2
  %21 = load ptr, ptr %20, align 8
  %22 = getelementptr inbounds nuw %struct.RelationData, ptr %21, i32 0, i32 14
  %23 = load ptr, ptr %22, align 8
  store ptr %23, ptr %6, align 8
  call void @llvm.lifetime.start.p0(i64 8, ptr %7) #6
  %24 = load ptr, ptr %3, align 8
  %25 = getelementptr inbounds nuw %struct.ResultRelInfo, ptr %24, i32 0, i32 2
  %26 = load ptr, ptr %25, align 8
  %27 = getelementptr inbounds nuw %struct.RelationData, ptr %26, i32 0, i32 14
  %28 = load ptr, ptr %27, align 8
  store ptr %28, ptr %7, align 8
  call void @llvm.lifetime.start.p0(i64 8, ptr %8) #6
  %29 = load ptr, ptr %3, align 8
  %30 = getelementptr inbounds nuw %struct.ResultRelInfo, ptr %29, i32 0, i32 2
  %31 = load ptr, ptr %30, align 8
  store ptr %31, ptr %8, align 8
  call void @llvm.lifetime.start.p0(i64 8, ptr %9) #6
  call void @llvm.lifetime.start.p0(i64 8, ptr %10) #6
  %32 = load ptr, ptr %4, align 8
  %33 = getelementptr inbounds nuw %struct.EState, ptr %32, i32 0, i32 25
  %34 = load ptr, ptr %33, align 8
  %35 = call ptr @MemoryContextSwitchTo(ptr noundef %34)
  store ptr %35, ptr %10, align 8
  %36 = load ptr, ptr %6, align 8
  %37 = load ptr, ptr %7, align 8
  %38 = load ptr, ptr %8, align 8
  %39 = getelementptr inbounds nuw %struct.RelationData, ptr %38, i32 0, i32 13
  %40 = load ptr, ptr %39, align 8
  %41 = getelementptr inbounds nuw %struct.FormData_pg_class, ptr %40, i32 0, i32 26
  %42 = load i8, ptr %41, align 1, !range !6, !noundef !7
  %43 = trunc i8 %42 to i1
  %44 = xor i1 %43, true
  %45 = call ptr @build_attrmap_by_name_if_req(ptr noundef %36, ptr noundef %37, i1 noundef zeroext %44)
  store ptr %45, ptr %9, align 8
  %46 = load ptr, ptr %9, align 8
  %47 = icmp ne ptr %46, null
  br i1 %47, label %48, label %55

48:                                               ; preds = %15
  %49 = load ptr, ptr %6, align 8
  %50 = load ptr, ptr %7, align 8
  %51 = load ptr, ptr %9, align 8
  %52 = call ptr @convert_tuples_by_name_attrmap(ptr noundef %49, ptr noundef %50, ptr noundef %51)
  %53 = load ptr, ptr %3, align 8
  %54 = getelementptr inbounds nuw %struct.ResultRelInfo, ptr %53, i32 0, i32 46
  store ptr %52, ptr %54, align 8
  br label %55

55:                                               ; preds = %48, %15
  %56 = load ptr, ptr %10, align 8
  %57 = call ptr @MemoryContextSwitchTo(ptr noundef %56)
  %58 = load ptr, ptr %3, align 8
  %59 = getelementptr inbounds nuw %struct.ResultRelInfo, ptr %58, i32 0, i32 47
  store i8 1, ptr %59, align 8
  call void @llvm.lifetime.end.p0(i64 8, ptr %10) #6
  call void @llvm.lifetime.end.p0(i64 8, ptr %9) #6
  call void @llvm.lifetime.end.p0(i64 8, ptr %8) #6
  call void @llvm.lifetime.end.p0(i64 8, ptr %7) #6
  call void @llvm.lifetime.end.p0(i64 8, ptr %6) #6
  call void @llvm.lifetime.end.p0(i64 8, ptr %5) #6
  br label %60

60:                                               ; preds = %55, %2
  %61 = load ptr, ptr %3, align 8
  %62 = getelementptr inbounds nuw %struct.ResultRelInfo, ptr %61, i32 0, i32 46
  %63 = load ptr, ptr %62, align 8
  ret ptr %63
}

; Function Attrs: nounwind uwtable
define internal ptr @GetResultRTEPermissionInfo(ptr noundef %0, ptr noundef %1) #0 {
  %3 = alloca ptr, align 8
  %4 = alloca ptr, align 8
  %5 = alloca i32, align 4
  %6 = alloca ptr, align 8
  %7 = alloca ptr, align 8
  store ptr %0, ptr %3, align 8
  store ptr %1, ptr %4, align 8
  call void @llvm.lifetime.start.p0(i64 4, ptr %5) #6
  call void @llvm.lifetime.start.p0(i64 8, ptr %6) #6
  call void @llvm.lifetime.start.p0(i64 8, ptr %7) #6
  store ptr null, ptr %7, align 8
  %8 = load ptr, ptr %3, align 8
  %9 = getelementptr inbounds nuw %struct.ResultRelInfo, ptr %8, i32 0, i32 48
  %10 = load ptr, ptr %9, align 8
  %11 = icmp ne ptr %10, null
  br i1 %11, label %12, label %18

12:                                               ; preds = %2
  %13 = load ptr, ptr %3, align 8
  %14 = getelementptr inbounds nuw %struct.ResultRelInfo, ptr %13, i32 0, i32 48
  %15 = load ptr, ptr %14, align 8
  %16 = getelementptr inbounds nuw %struct.ResultRelInfo, ptr %15, i32 0, i32 1
  %17 = load i32, ptr %16, align 4
  store i32 %17, ptr %5, align 4
  br label %29

18:                                               ; preds = %2
  %19 = load ptr, ptr %3, align 8
  %20 = getelementptr inbounds nuw %struct.ResultRelInfo, ptr %19, i32 0, i32 1
  %21 = load i32, ptr %20, align 4
  %22 = icmp ne i32 %21, 0
  br i1 %22, label %23, label %27

23:                                               ; preds = %18
  %24 = load ptr, ptr %3, align 8
  %25 = getelementptr inbounds nuw %struct.ResultRelInfo, ptr %24, i32 0, i32 1
  %26 = load i32, ptr %25, align 4
  store i32 %26, ptr %5, align 4
  br label %28

27:                                               ; preds = %18
  store i32 0, ptr %5, align 4
  br label %28

28:                                               ; preds = %27, %23
  br label %29

29:                                               ; preds = %28, %12
  %30 = load i32, ptr %5, align 4
  %31 = icmp ugt i32 %30, 0
  br i1 %31, label %32, label %41

32:                                               ; preds = %29
  %33 = load i32, ptr %5, align 4
  %34 = load ptr, ptr %4, align 8
  %35 = call ptr @exec_rt_fetch(i32 noundef %33, ptr noundef %34)
  store ptr %35, ptr %6, align 8
  %36 = load ptr, ptr %4, align 8
  %37 = getelementptr inbounds nuw %struct.EState, ptr %36, i32 0, i32 8
  %38 = load ptr, ptr %37, align 8
  %39 = load ptr, ptr %6, align 8
  %40 = call ptr @getRTEPermissionInfo(ptr noundef %38, ptr noundef %39)
  store ptr %40, ptr %7, align 8
  br label %41

41:                                               ; preds = %32, %29
  %42 = load ptr, ptr %7, align 8
  call void @llvm.lifetime.end.p0(i64 8, ptr %7) #6
  call void @llvm.lifetime.end.p0(i64 8, ptr %6) #6
  call void @llvm.lifetime.end.p0(i64 4, ptr %5) #6
  ret ptr %42
}

; Function Attrs: nounwind uwtable
define dso_local ptr @ExecGetUpdatedCols(ptr noundef %0, ptr noundef %1) #0 {
  %3 = alloca ptr, align 8
  %4 = alloca ptr, align 8
  %5 = alloca ptr, align 8
  %6 = alloca ptr, align 8
  %7 = alloca i32, align 4
  %8 = alloca ptr, align 8
  store ptr %0, ptr %4, align 8
  store ptr %1, ptr %5, align 8
  call void @llvm.lifetime.start.p0(i64 8, ptr %6) #6
  %9 = load ptr, ptr %4, align 8
  %10 = load ptr, ptr %5, align 8
  %11 = call ptr @GetResultRTEPermissionInfo(ptr noundef %9, ptr noundef %10)
  store ptr %11, ptr %6, align 8
  %12 = load ptr, ptr %6, align 8
  %13 = icmp eq ptr %12, null
  br i1 %13, label %14, label %15

14:                                               ; preds = %2
  store ptr null, ptr %3, align 8
  store i32 1, ptr %7, align 4
  br label %42

15:                                               ; preds = %2
  %16 = load ptr, ptr %4, align 8
  %17 = getelementptr inbounds nuw %struct.ResultRelInfo, ptr %16, i32 0, i32 48
  %18 = load ptr, ptr %17, align 8
  %19 = icmp ne ptr %18, null
  br i1 %19, label %20, label %38

20:                                               ; preds = %15
  call void @llvm.lifetime.start.p0(i64 8, ptr %8) #6
  %21 = load ptr, ptr %4, align 8
  %22 = load ptr, ptr %5, align 8
  %23 = call ptr @ExecGetRootToChildMap(ptr noundef %21, ptr noundef %22)
  store ptr %23, ptr %8, align 8
  %24 = load ptr, ptr %8, align 8
  %25 = icmp ne ptr %24, null
  br i1 %25, label %26, label %34

26:                                               ; preds = %20
  %27 = load ptr, ptr %8, align 8
  %28 = getelementptr inbounds nuw %struct.TupleConversionMap, ptr %27, i32 0, i32 2
  %29 = load ptr, ptr %28, align 8
  %30 = load ptr, ptr %6, align 8
  %31 = getelementptr inbounds nuw %struct.RTEPermissionInfo, ptr %30, i32 0, i32 7
  %32 = load ptr, ptr %31, align 8
  %33 = call ptr @execute_attr_map_cols(ptr noundef %29, ptr noundef %32)
  store ptr %33, ptr %3, align 8
  store i32 1, ptr %7, align 4
  br label %35

34:                                               ; preds = %20
  store i32 0, ptr %7, align 4
  br label %35

35:                                               ; preds = %34, %26
  call void @llvm.lifetime.end.p0(i64 8, ptr %8) #6
  %36 = load i32, ptr %7, align 4
  switch i32 %36, label %42 [
    i32 0, label %37
  ]

37:                                               ; preds = %35
  br label %38

38:                                               ; preds = %37, %15
  %39 = load ptr, ptr %6, align 8
  %40 = getelementptr inbounds nuw %struct.RTEPermissionInfo, ptr %39, i32 0, i32 7
  %41 = load ptr, ptr %40, align 8
  store ptr %41, ptr %3, align 8
  store i32 1, ptr %7, align 4
  br label %42

42:                                               ; preds = %38, %35, %14
  call void @llvm.lifetime.end.p0(i64 8, ptr %6) #6
  %43 = load ptr, ptr %3, align 8
  ret ptr %43
}